; Function Attrs: nounwind uwtable
define internal ptr @complex_from_number(ptr noundef %0, ptr noundef %1) #9 {
  %3 = getelementptr i8, ptr %1, i64 8
  %.val = load ptr, ptr %3, align 8, !tbaa !8
  %4 = icmp eq ptr %.val, @PyComplex_Type
  %5 = icmp eq ptr %0, @PyComplex_Type
  %or.cond = and i1 %5, %4
  br i1 %or.cond, label %6, label %11

6:                                                ; preds = %2
  %7 = load i32, ptr %1, align 8, !tbaa !12
  %8 = icmp slt i32 %7, 0
  br i1 %8, label %Py_INCREF.exit, label %9

9:                                                ; preds = %6
  %10 = add nuw i32 %7, 1
  store i32 %10, ptr %1, align 8, !tbaa !12
  br label %Py_INCREF.exit

11:                                               ; preds = %2
  %12 = tail call { double, double } @PyComplex_AsCComplex(ptr noundef nonnull %1)
  %13 = extractvalue { double, double } %12, 0
  %14 = extractvalue { double, double } %12, 1
  %15 = fcmp oeq double %13, -1.000000e+00
  br i1 %15, label %16, label %18

16:                                               ; preds = %11
  %17 = tail call ptr @PyErr_Occurred() #16
  %.not = icmp eq ptr %17, null
  br i1 %.not, label %18, label %Py_INCREF.exit

18:                                               ; preds = %16, %11
  %19 = tail call ptr @PyObject_Malloc(i64 noundef 32) #16
  %20 = icmp eq ptr %19, null
  br i1 %20, label %21, label %23

21:                                               ; preds = %18
  %22 = tail call ptr @PyErr_NoMemory() #16
  br label %PyComplex_FromCComplex.exit

23:                                               ; preds = %18
  %24 = getelementptr inbounds nuw i8, ptr %19, i64 8
  store ptr @PyComplex_Type, ptr %24, align 8, !tbaa !8
  %25 = load i32, ptr @PyComplex_Type, align 8, !tbaa !12
  %26 = icmp slt i32 %25, 0
  br i1 %26, label %_PyObject_Init.exit.i, label %27

27:                                               ; preds = %23
  %28 = add nuw i32 %25, 1
  store i32 %28, ptr @PyComplex_Type, align 8, !tbaa !12
  br label %_PyObject_Init.exit.i

_PyObject_Init.exit.i:                            ; preds = %27, %23
  tail call void @_Py_NewReference(ptr noundef nonnull %19) #16
  %29 = getelementptr inbounds nuw i8, ptr %19, i64 16
  store double %13, ptr %29, align 8, !tbaa !13
  %.sroa.2.0..sroa_idx.i = getelementptr inbounds nuw i8, ptr %19, i64 24
  store double %14, ptr %.sroa.2.0..sroa_idx.i, align 8, !tbaa !13
  br label %PyComplex_FromCComplex.exit

PyComplex_FromCComplex.exit:                      ; preds = %21, %_PyObject_Init.exit.i
  %.0.i = phi ptr [ %22, %21 ], [ %19, %_PyObject_Init.exit.i ]
  %30 = icmp ne ptr %0, @PyComplex_Type
  %31 = icmp ne ptr %.0.i, null
  %or.cond3 = select i1 %30, i1 %31, i1 false
  br i1 %or.cond3, label %32, label %Py_INCREF.exit

32:                                               ; preds = %PyComplex_FromCComplex.exit
  %33 = tail call ptr @PyObject_CallOneArg(ptr noundef %0, ptr noundef nonnull %.0.i) #16
  %34 = load i32, ptr %.0.i, align 8, !tbaa !12
  %.not.i = icmp sgt i32 %34, -1
  br i1 %.not.i, label %35, label %Py_INCREF.exit

35:                                               ; preds = %32
  %36 = add nsw i32 %34, -1
  store i32 %36, ptr %.0.i, align 8, !tbaa !12
  %37 = icmp eq i32 %36, 0
  br i1 %37, label %38, label %Py_INCREF.exit

38:                                               ; preds = %35
  tail call void @_Py_Dealloc(ptr noundef nonnull %.0.i) #16
  br label %Py_INCREF.exit

Py_INCREF.exit:                                   ; preds = %38, %35, %32, %9, %6, %16, %PyComplex_FromCComplex.exit
  %.0 = phi ptr [ null, %16 ], [ %.0.i, %PyComplex_FromCComplex.exit ], [ %1, %6 ], [ %1, %9 ], [ %33, %32 ], [ %33, %35 ], [ %33, %38 ]
  ret ptr %.0
}